; Function Attrs: nounwind uwtable
define internal noundef i32 @mms_close(ptr noundef readonly captures(none) %0) #0 {
  %2 = getelementptr inbounds nuw i8, ptr %0, i64 16
  %3 = load ptr, ptr %2, align 8, !tbaa !4
  %4 = load ptr, ptr %3, align 8, !tbaa !31
  %.not = icmp eq ptr %4, null
  br i1 %.not, label %33, label %5

5:                                                ; preds = %1
  %6 = getelementptr inbounds nuw i8, ptr %3, i64 24
  %7 = getelementptr inbounds nuw i8, ptr %3, i64 16
  store i32 1, ptr %6, align 1, !tbaa !36
  %8 = getelementptr inbounds nuw i8, ptr %3, i64 28
  store i32 -1341392178, ptr %8, align 1, !tbaa !36
  %9 = getelementptr inbounds nuw i8, ptr %3, i64 32
  %10 = getelementptr inbounds nuw i8, ptr %3, i64 36
  store i32 542330189, ptr %10, align 1, !tbaa !36
  %11 = getelementptr inbounds nuw i8, ptr %3, i64 40
  %12 = getelementptr inbounds nuw i8, ptr %3, i64 44
  %13 = getelementptr inbounds nuw i8, ptr %3, i64 66120
  %14 = load i32, ptr %13, align 8, !tbaa !37
  %15 = add nsw i32 %14, 1
  store i32 %15, ptr %13, align 8, !tbaa !37
  store i32 %14, ptr %12, align 1, !tbaa !36
  %16 = getelementptr inbounds nuw i8, ptr %3, i64 48
  store i64 0, ptr %16, align 1, !tbaa !36
  %17 = getelementptr inbounds nuw i8, ptr %3, i64 56
  %18 = getelementptr inbounds nuw i8, ptr %3, i64 60
  store i16 13, ptr %18, align 1, !tbaa !36
  %19 = getelementptr inbounds nuw i8, ptr %3, i64 62
  store i16 3, ptr %19, align 1, !tbaa !36
  %20 = getelementptr inbounds nuw i8, ptr %3, i64 64
  store i32 1, ptr %20, align 1, !tbaa !36
  %21 = getelementptr inbounds nuw i8, ptr %3, i64 68
  store i32 1, ptr %21, align 1, !tbaa !36
  %22 = getelementptr inbounds nuw i8, ptr %3, i64 72
  store ptr %22, ptr %7, align 8, !tbaa !38
  store i32 32, ptr %9, align 1, !tbaa !36
  store i32 4, ptr %11, align 1, !tbaa !36
  store i32 2, ptr %17, align 1, !tbaa !36
  %23 = tail call i32 @ffurl_write2(ptr noundef nonnull %4, ptr noundef nonnull %6, i32 noundef range(i32 0, -7) 48) #7
  %.not.i.i = icmp eq i32 %23, 48
  br i1 %.not.i.i, label %send_close_packet.exit, label %24

24:                                               ; preds = %5
  %25 = load ptr, ptr %3, align 8, !tbaa !31
  %26 = icmp slt i32 %23, 0
  br i1 %26, label %27, label %30

27:                                               ; preds = %24
  %28 = sub nsw i32 0, %23
  %29 = tail call ptr @strerror(i32 noundef %28) #7
  br label %30

30:                                               ; preds = %27, %24
  %31 = phi ptr [ %29, %27 ], [ @.str.11, %24 ]
  tail call void (ptr, i32, ptr, ...) @av_log(ptr noundef %25, i32 noundef 16, ptr noundef nonnull @.str.19, i32 noundef 48, i32 noundef %23, ptr noundef %31) #7
  br label %send_close_packet.exit

send_close_packet.exit:                           ; preds = %5, %30
  %32 = tail call i32 @ffurl_closep(ptr noundef nonnull %3) #7
  br label %33

33:                                               ; preds = %send_close_packet.exit, %1
  %34 = getelementptr inbounds nuw i8, ptr %3, i64 8
  tail call void @av_freep(ptr noundef nonnull %34) #7
  %35 = getelementptr inbounds nuw i8, ptr %3, i64 66088
  tail call void @av_freep(ptr noundef nonnull %35) #7
  ret i32 0
}